; Function Attrs: mustprogress uwtable
define dso_local void @_ZN35btSoftBodyConcaveCollisionAlgorithm10clearCacheEv(ptr noundef nonnull align 8 dereferenceable(248) %0) local_unnamed_addr #0 align 2 {
  %2 = getelementptr inbounds nuw i8, ptr %0, i64 180
  %3 = load i32, ptr %2, align 4, !tbaa !44
  %4 = icmp sgt i32 %3, 0
  br i1 %4, label %.lr.ph.i, label %_ZN26btSoftBodyTriangleCallback10clearCacheEv.exit

.lr.ph.i:                                         ; preds = %1
  %5 = getelementptr inbounds nuw i8, ptr %0, i64 192
  %6 = getelementptr inbounds nuw i8, ptr %0, i64 32
  br label %7

7:                                                ; preds = %43, %.lr.ph.i
  %indvars.iv.i = phi i64 [ 0, %.lr.ph.i ], [ %indvars.iv.next.i, %43 ]
  %8 = load ptr, ptr %5, align 8
  %9 = load ptr, ptr %6, align 8, !tbaa !55
  %10 = getelementptr inbounds nuw i8, ptr %9, i64 888
  %11 = load ptr, ptr %10, align 8, !tbaa !57
  %12 = getelementptr inbounds nuw %struct.btTriIndex, ptr %8, i64 %indvars.iv.i, i32 1
  %13 = load ptr, ptr %12, align 8, !tbaa !151
  %14 = getelementptr inbounds nuw i8, ptr %11, i64 68
  %15 = load i32, ptr %14, align 4, !tbaa !153
  %16 = icmp sgt i32 %15, 0
  br i1 %16, label %.lr.ph31.i.i, label %_ZN11btSparseSdfILi3EE16RemoveReferencesEP16btCollisionShape.exit.i

.lr.ph31.i.i:                                     ; preds = %7
  %17 = getelementptr inbounds nuw i8, ptr %11, i64 80
  br label %18

18:                                               ; preds = %._crit_edge.i.i, %.lr.ph31.i.i
  %19 = phi i32 [ %15, %.lr.ph31.i.i ], [ %34, %._crit_edge.i.i ]
  %indvars.iv.i.i = phi i64 [ 0, %.lr.ph31.i.i ], [ %indvars.iv.next.i.i, %._crit_edge.i.i ]
  %20 = load ptr, ptr %17, align 8, !tbaa !157
  %21 = getelementptr inbounds nuw ptr, ptr %20, i64 %indvars.iv.i.i
  %22 = load ptr, ptr %21, align 8, !tbaa !158
  %.not24.i.i = icmp eq ptr %22, null
  br i1 %.not24.i.i, label %._crit_edge.i.i, label %.lr.ph.i.i

.lr.ph.i.i:                                       ; preds = %18, %33
  %.01926.i.i = phi ptr [ %24, %33 ], [ %22, %18 ]
  %.02125.i.i = phi ptr [ %.120.i.i, %33 ], [ null, %18 ]
  %23 = getelementptr inbounds nuw i8, ptr %.01926.i.i, i64 288
  %24 = load ptr, ptr %23, align 8, !tbaa !160
  %25 = getelementptr inbounds nuw i8, ptr %.01926.i.i, i64 280
  %26 = load ptr, ptr %25, align 8, !tbaa !162
  %27 = icmp eq ptr %26, %13
  br i1 %27, label %28, label %33

28:                                               ; preds = %.lr.ph.i.i
  %.not23.i.i = icmp eq ptr %.02125.i.i, null
  br i1 %.not23.i.i, label %31, label %29

29:                                               ; preds = %28
  %30 = getelementptr inbounds nuw i8, ptr %.02125.i.i, i64 288
  store ptr %24, ptr %30, align 8, !tbaa !160
  br label %32

31:                                               ; preds = %28
  store ptr %24, ptr %21, align 8, !tbaa !158
  br label %32

32:                                               ; preds = %31, %29
  tail call void @_ZdlPvm(ptr noundef nonnull %.01926.i.i, i64 noundef 296) #16
  br label %33

33:                                               ; preds = %32, %.lr.ph.i.i
  %.120.i.i = phi ptr [ %.02125.i.i, %32 ], [ %.01926.i.i, %.lr.ph.i.i ]
  %.not.i.i = icmp eq ptr %24, null
  br i1 %.not.i.i, label %._crit_edge.loopexit.i.i, label %.lr.ph.i.i, !llvm.loop !163

._crit_edge.loopexit.i.i:                         ; preds = %33
  %.pre.i.i = load i32, ptr %14, align 4, !tbaa !153
  br label %._crit_edge.i.i

._crit_edge.i.i:                                  ; preds = %._crit_edge.loopexit.i.i, %18
  %34 = phi i32 [ %19, %18 ], [ %.pre.i.i, %._crit_edge.loopexit.i.i ]
  %indvars.iv.next.i.i = add nuw nsw i64 %indvars.iv.i.i, 1
  %35 = sext i32 %34 to i64
  %36 = icmp slt i64 %indvars.iv.next.i.i, %35
  br i1 %36, label %18, label %_ZN11btSparseSdfILi3EE16RemoveReferencesEP16btCollisionShape.exitthread-pre-split.i, !llvm.loop !165

_ZN11btSparseSdfILi3EE16RemoveReferencesEP16btCollisionShape.exitthread-pre-split.i: ; preds = %._crit_edge.i.i
  %.pr.i = load ptr, ptr %12, align 8, !tbaa !151
  br label %_ZN11btSparseSdfILi3EE16RemoveReferencesEP16btCollisionShape.exit.i

_ZN11btSparseSdfILi3EE16RemoveReferencesEP16btCollisionShape.exit.i: ; preds = %_ZN11btSparseSdfILi3EE16RemoveReferencesEP16btCollisionShape.exitthread-pre-split.i, %7
  %37 = phi ptr [ %.pr.i, %_ZN11btSparseSdfILi3EE16RemoveReferencesEP16btCollisionShape.exitthread-pre-split.i ], [ %13, %7 ]
  %38 = icmp eq ptr %37, null
  br i1 %38, label %43, label %39

39:                                               ; preds = %_ZN11btSparseSdfILi3EE16RemoveReferencesEP16btCollisionShape.exit.i
  %40 = load ptr, ptr %37, align 8, !tbaa !4
  %41 = getelementptr inbounds nuw i8, ptr %40, i64 8
  %42 = load ptr, ptr %41, align 8
  tail call void %42(ptr noundef nonnull align 8 dereferenceable(32) %37) #15
  br label %43

43:                                               ; preds = %39, %_ZN11btSparseSdfILi3EE16RemoveReferencesEP16btCollisionShape.exit.i
  %indvars.iv.next.i = add nuw nsw i64 %indvars.iv.i, 1
  %44 = load i32, ptr %2, align 4, !tbaa !44
  %45 = sext i32 %44 to i64
  %46 = icmp slt i64 %indvars.iv.next.i, %45
  br i1 %46, label %7, label %_ZN26btSoftBodyTriangleCallback10clearCacheEv.exit, !llvm.loop !166

_ZN26btSoftBodyTriangleCallback10clearCacheEv.exit: ; preds = %43, %1
  %47 = getelementptr inbounds nuw i8, ptr %0, i64 112
  tail call void @_ZN9btHashMapI9btHashKeyI10btTriIndexES1_E5clearEv(ptr noundef nonnull align 8 dereferenceable(128) %47)
  ret void
}